
oled.elf:     file format elf32-avr

Sections:
Idx Name          Size      VMA       LMA       File off  Algn
  0 .text         000001fc  00000000  00000000  00000094  2**1
                  CONTENTS, ALLOC, LOAD, READONLY, CODE
  1 .data         00000000  00800060  000001fc  00000290  2**0
                  CONTENTS, ALLOC, LOAD, DATA
  2 .bss          00000024  00800060  00800060  00000290  2**0
                  ALLOC
  3 .comment      00000011  00000000  00000000  00000290  2**0
                  CONTENTS, READONLY
  4 .debug_aranges 00000080  00000000  00000000  000002a8  2**3
                  CONTENTS, READONLY, DEBUGGING
  5 .debug_info   000002f8  00000000  00000000  00000328  2**0
                  CONTENTS, READONLY, DEBUGGING
  6 .debug_abbrev 00000050  00000000  00000000  00000620  2**0
                  CONTENTS, READONLY, DEBUGGING
  7 .debug_line   00000172  00000000  00000000  00000670  2**0
                  CONTENTS, READONLY, DEBUGGING

Disassembly of section .text:

00000000 <__vectors>:
   0:	2c c0       	rjmp	.+88     	; 0x5a <__ctors_end>
   2:	00 00       	nop
   4:	44 c0       	rjmp	.+136    	; 0x8e <__bad_interrupt>
   6:	00 00       	nop
   8:	42 c0       	rjmp	.+132    	; 0x8e <__bad_interrupt>
   a:	00 00       	nop
   c:	40 c0       	rjmp	.+128    	; 0x8e <__bad_interrupt>
   e:	00 00       	nop
  10:	3e c0       	rjmp	.+124    	; 0x8e <__bad_interrupt>
  12:	00 00       	nop
  14:	3c c0       	rjmp	.+120    	; 0x8e <__bad_interrupt>
  16:	00 00       	nop
  18:	3a c0       	rjmp	.+116    	; 0x8e <__bad_interrupt>
  1a:	00 00       	nop
  1c:	38 c0       	rjmp	.+112    	; 0x8e <__bad_interrupt>
  1e:	00 00       	nop
  20:	36 c0       	rjmp	.+108    	; 0x8e <__bad_interrupt>
  22:	00 00       	nop
  24:	34 c0       	rjmp	.+104    	; 0x8e <__bad_interrupt>
  26:	00 00       	nop
  28:	32 c0       	rjmp	.+100    	; 0x8e <__bad_interrupt>
  2a:	00 00       	nop
  2c:	30 c0       	rjmp	.+96     	; 0x8e <__bad_interrupt>
  2e:	00 00       	nop
  30:	2e c0       	rjmp	.+92     	; 0x8e <__bad_interrupt>
  32:	00 00       	nop
  34:	2c c0       	rjmp	.+88     	; 0x8e <__bad_interrupt>
  36:	00 00       	nop
  38:	2a c0       	rjmp	.+84     	; 0x8e <__bad_interrupt>
  3a:	00 00       	nop
  3c:	28 c0       	rjmp	.+80     	; 0x8e <__bad_interrupt>
  3e:	00 00       	nop
  40:	26 c0       	rjmp	.+76     	; 0x8e <__bad_interrupt>
  42:	00 00       	nop
  44:	24 c0       	rjmp	.+72     	; 0x8e <__bad_interrupt>
  46:	00 00       	nop
  48:	22 c0       	rjmp	.+68     	; 0x8e <__bad_interrupt>
  4a:	00 00       	nop
  4c:	20 c0       	rjmp	.+64     	; 0x8e <__bad_interrupt>
  4e:	00 00       	nop
  50:	1e c0       	rjmp	.+60     	; 0x8e <__bad_interrupt>
	...

00000054 <__ctors_start>:
  54:	70 00       	.word	0x0070	; ????
  56:	95 00       	.word	0x0095	; ????
  58:	d1 00       	.word	0x00d1	; ????

0000005a <__ctors_end>:
  5a:	11 24       	eor	r1, r1
  5c:	1f be       	out	0x3f, r1	; 63
  5e:	cf e5       	ldi	r28, 0x5F	; 95
  60:	d4 e0       	ldi	r29, 0x04	; 4
  62:	de bf       	out	0x3e, r29	; 62
  64:	cd bf       	out	0x3d, r28	; 61

00000066 <__do_clear_bss>:
  66:	20 e0       	ldi	r18, 0x00	; 0
  68:	a0 e6       	ldi	r26, 0x60	; 96
  6a:	b0 e0       	ldi	r27, 0x00	; 0
  6c:	01 c0       	rjmp	.+2      	; 0x70 <.do_clear_bss_start>

0000006e <.do_clear_bss_loop>:
  6e:	1d 92       	st	X+, r1

00000070 <.do_clear_bss_start>:
  70:	a4 38       	cpi	r26, 0x84	; 132
  72:	b2 07       	cpc	r27, r18
  74:	e1 f7       	brne	.-8      	; 0x6e <.do_clear_bss_loop>

00000076 <__do_global_ctors>:
  76:	10 e0       	ldi	r17, 0x00	; 0
  78:	ca e5       	ldi	r28, 0x5A	; 90
  7a:	d0 e0       	ldi	r29, 0x00	; 0
  7c:	03 c0       	rjmp	.+6      	; 0x84 <__do_global_ctors+0xe>
  7e:	22 97       	sbiw	r28, 0x02	; 2
  80:	fe 01       	movw	r30, r28
  82:	b6 d0       	rcall	.+364    	; 0x1f0 <__tablejump__>
  84:	c4 35       	cpi	r28, 0x54	; 84
  86:	d1 07       	cpc	r29, r17
  88:	d1 f7       	brne	.-12     	; 0x7e <__do_global_ctors+0x8>
  8a:	74 d0       	rcall	.+232    	; 0x174 <main>
  8c:	b5 c0       	rjmp	.+362    	; 0x1f8 <_exit>

0000008e <__bad_interrupt>:
  8e:	b8 cf       	rjmp	.-144    	; 0x0 <__vectors>

00000090 <_ZN5OCAPI3PinC1ENS_7PINKindEh>:
  90:	fc 01       	movw	r30, r24
  92:	60 83       	st	Z, r22
  94:	41 83       	std	Z+1, r20	; 0x01
  96:	08 95       	ret

00000098 <_ZN5OCAPI3Pin10setModeOutEv>:
  98:	dc 01       	movw	r26, r24
  9a:	ec 91       	ld	r30, X
  9c:	f0 e0       	ldi	r31, 0x00	; 0
  9e:	e8 59       	subi	r30, 0x98	; 152
  a0:	ff 4f       	sbci	r31, 0xFF	; 255
  a2:	21 e0       	ldi	r18, 0x01	; 1
  a4:	30 e0       	ldi	r19, 0x00	; 0
  a6:	11 96       	adiw	r26, 0x01	; 1
  a8:	0c 90       	ld	r0, X
  aa:	02 c0       	rjmp	.+4      	; 0xb0 <_ZN5OCAPI3Pin10setModeOutEv+0x18>
  ac:	22 0f       	add	r18, r18
  ae:	33 1f       	adc	r19, r19
  b0:	0a 94       	dec	r0
  b2:	e2 f7       	brpl	.-8      	; 0xac <_ZN5OCAPI3Pin10setModeOutEv+0x14>
  b4:	80 81       	ld	r24, Z
  b6:	82 2b       	or	r24, r18
  b8:	80 83       	st	Z, r24
  ba:	08 95       	ret

000000bc <_ZN5OCAPI3Pin7setHighEv>:
  bc:	dc 01       	movw	r26, r24
  be:	ec 91       	ld	r30, X
  c0:	f0 e0       	ldi	r31, 0x00	; 0
  c2:	ec 59       	subi	r30, 0x9C	; 156
  c4:	ff 4f       	sbci	r31, 0xFF	; 255
  c6:	21 e0       	ldi	r18, 0x01	; 1
  c8:	30 e0       	ldi	r19, 0x00	; 0
  ca:	11 96       	adiw	r26, 0x01	; 1
  cc:	0c 90       	ld	r0, X
  ce:	02 c0       	rjmp	.+4      	; 0xd4 <_ZN5OCAPI3Pin7setHighEv+0x18>
  d0:	22 0f       	add	r18, r18
  d2:	33 1f       	adc	r19, r19
  d4:	0a 94       	dec	r0
  d6:	e2 f7       	brpl	.-8      	; 0xd0 <_ZN5OCAPI3Pin7setHighEv+0x14>
  d8:	80 81       	ld	r24, Z
  da:	82 2b       	or	r24, r18
  dc:	80 83       	st	Z, r24
  de:	08 95       	ret

000000e0 <_GLOBAL__sub_I__ZN5OCAPI3PinC2ENS_7PINKindEh>:
  e0:	8a b3       	in	r24, 0x1a	; 26
  e2:	80 93 68 00 	sts	0x0068, r24
  e6:	87 b3       	in	r24, 0x17	; 23
  e8:	80 93 69 00 	sts	0x0069, r24
  ec:	84 b3       	in	r24, 0x14	; 20
  ee:	80 93 6a 00 	sts	0x006A, r24
  f2:	81 b3       	in	r24, 0x11	; 17
  f4:	80 93 6b 00 	sts	0x006B, r24
  f8:	8b b3       	in	r24, 0x1b	; 27
  fa:	80 93 64 00 	sts	0x0064, r24
  fe:	88 b3       	in	r24, 0x18	; 24
 100:	80 93 65 00 	sts	0x0065, r24
 104:	85 b3       	in	r24, 0x15	; 21
 106:	80 93 66 00 	sts	0x0066, r24
 10a:	82 b3       	in	r24, 0x12	; 18
 10c:	80 93 67 00 	sts	0x0067, r24
 110:	89 b3       	in	r24, 0x19	; 25
 112:	80 93 60 00 	sts	0x0060, r24
 116:	86 b3       	in	r24, 0x16	; 22
 118:	80 93 61 00 	sts	0x0061, r24
 11c:	83 b3       	in	r24, 0x13	; 19
 11e:	80 93 62 00 	sts	0x0062, r24
 122:	80 b3       	in	r24, 0x10	; 16
 124:	80 93 63 00 	sts	0x0063, r24
 128:	08 95       	ret

0000012a <_GLOBAL__sub_I__ZN5OCAPI3SPIC2ENS_3PinES1_S1_S1_S1_>:
 12a:	8a b3       	in	r24, 0x1a	; 26
 12c:	80 93 74 00 	sts	0x0074, r24
 130:	87 b3       	in	r24, 0x17	; 23
 132:	80 93 75 00 	sts	0x0075, r24
 136:	84 b3       	in	r24, 0x14	; 20
 138:	80 93 76 00 	sts	0x0076, r24
 13c:	81 b3       	in	r24, 0x11	; 17
 13e:	80 93 77 00 	sts	0x0077, r24
 142:	8b b3       	in	r24, 0x1b	; 27
 144:	80 93 70 00 	sts	0x0070, r24
 148:	88 b3       	in	r24, 0x18	; 24
 14a:	80 93 71 00 	sts	0x0071, r24
 14e:	85 b3       	in	r24, 0x15	; 21
 150:	80 93 72 00 	sts	0x0072, r24
 154:	82 b3       	in	r24, 0x12	; 18
 156:	80 93 73 00 	sts	0x0073, r24
 15a:	89 b3       	in	r24, 0x19	; 25
 15c:	80 93 6c 00 	sts	0x006C, r24
 160:	86 b3       	in	r24, 0x16	; 22
 162:	80 93 6d 00 	sts	0x006D, r24
 166:	83 b3       	in	r24, 0x13	; 19
 168:	80 93 6e 00 	sts	0x006E, r24
 16c:	80 b3       	in	r24, 0x10	; 16
 16e:	80 93 6f 00 	sts	0x006F, r24
 172:	08 95       	ret

00000174 <main>:
 174:	cf 93       	push	r28
 176:	df 93       	push	r29
 178:	00 d0       	rcall	.+0      	; 0x17a <main+0x6>
 17a:	cd b7       	in	r28, 0x3d	; 61
 17c:	de b7       	in	r29, 0x3e	; 62
 17e:	44 e0       	ldi	r20, 0x04	; 4
 180:	60 e0       	ldi	r22, 0x00	; 0
 182:	ce 01       	movw	r24, r28
 184:	01 96       	adiw	r24, 0x01	; 1
 186:	84 df       	rcall	.-248    	; 0x90 <_ZN5OCAPI3PinC1ENS_7PINKindEh>
 188:	ce 01       	movw	r24, r28
 18a:	01 96       	adiw	r24, 0x01	; 1
 18c:	85 df       	rcall	.-246    	; 0x98 <_ZN5OCAPI3Pin10setModeOutEv>
 18e:	ce 01       	movw	r24, r28
 190:	01 96       	adiw	r24, 0x01	; 1
 192:	94 df       	rcall	.-216    	; 0xbc <_ZN5OCAPI3Pin7setHighEv>
 194:	80 e0       	ldi	r24, 0x00	; 0
 196:	90 e0       	ldi	r25, 0x00	; 0
 198:	0f 90       	pop	r0
 19a:	0f 90       	pop	r0
 19c:	df 91       	pop	r29
 19e:	cf 91       	pop	r28
 1a0:	08 95       	ret

000001a2 <_GLOBAL__sub_I_main>:
 1a2:	8a b3       	in	r24, 0x1a	; 26
 1a4:	80 93 80 00 	sts	0x0080, r24
 1a8:	87 b3       	in	r24, 0x17	; 23
 1aa:	80 93 81 00 	sts	0x0081, r24
 1ae:	84 b3       	in	r24, 0x14	; 20
 1b0:	80 93 82 00 	sts	0x0082, r24
 1b4:	81 b3       	in	r24, 0x11	; 17
 1b6:	80 93 83 00 	sts	0x0083, r24
 1ba:	8b b3       	in	r24, 0x1b	; 27
 1bc:	80 93 7c 00 	sts	0x007C, r24
 1c0:	88 b3       	in	r24, 0x18	; 24
 1c2:	80 93 7d 00 	sts	0x007D, r24
 1c6:	85 b3       	in	r24, 0x15	; 21
 1c8:	80 93 7e 00 	sts	0x007E, r24
 1cc:	82 b3       	in	r24, 0x12	; 18
 1ce:	80 93 7f 00 	sts	0x007F, r24
 1d2:	89 b3       	in	r24, 0x19	; 25
 1d4:	80 93 78 00 	sts	0x0078, r24
 1d8:	86 b3       	in	r24, 0x16	; 22
 1da:	80 93 79 00 	sts	0x0079, r24
 1de:	83 b3       	in	r24, 0x13	; 19
 1e0:	80 93 7a 00 	sts	0x007A, r24
 1e4:	80 b3       	in	r24, 0x10	; 16
 1e6:	80 93 7b 00 	sts	0x007B, r24
 1ea:	08 95       	ret

000001ec <__tablejump2__>:
 1ec:	ee 0f       	add	r30, r30
 1ee:	ff 1f       	adc	r31, r31

000001f0 <__tablejump__>:
 1f0:	05 90       	lpm	r0, Z+
 1f2:	f4 91       	lpm	r31, Z
 1f4:	e0 2d       	mov	r30, r0
 1f6:	09 94       	ijmp

000001f8 <_exit>:
 1f8:	f8 94       	cli

000001fa <__stop_program>:
 1fa:	ff cf       	rjmp	.-2      	; 0x1fa <__stop_program>
